(lp0
S'poi'
p1
aS'salary'
p2
aS'deferral_payments'
p3
aS'total_payments'
p4
aS'bonus'
p5
aS'deferred_income'
p6
aS'total_stock_value'
p7
aS'expenses'
p8
aS'exercised_stock_options'
p9
aS'long_term_incentive'
p10
aS'restricted_stock'
p11
aS'to_poi_frac'
p12
aS'from_poi_frac'
p13
aS'shared_recipient_frac'
p14
a.